; Function Attrs: mustprogress uwtable
define void @_ZNK11colvarvalue16to_simple_stringB5cxx11Ev(ptr dead_on_unwind noalias writable sret(%"class.std::__cxx11::basic_string") align 8 %0, ptr noundef nonnull align 8 dereferenceable(168) %1) local_unnamed_addr #1 align 2 personality ptr @__gxx_personality_v0 {
  %3 = load i32, ptr %1, align 8, !tbaa !4
  switch i32 %3, label %13 [
    i32 1, label %4
    i32 2, label %7
    i32 3, label %7
    i32 4, label %7
    i32 5, label %9
    i32 6, label %9
    i32 7, label %11
  ]

4:                                                ; preds = %2
  %5 = getelementptr inbounds nuw i8, ptr %1, i64 8
  %6 = load i64, ptr @_ZN12colvarmodule7cv_precE, align 8, !tbaa !56
  tail call void @_ZN12colvarmodule6to_strB5cxx11ERKdmm(ptr dead_on_unwind writable sret(%"class.std::__cxx11::basic_string") align 8 %0, ptr noundef nonnull align 8 dereferenceable(8) %5, i64 noundef 0, i64 noundef %6)
  br label %16

7:                                                ; preds = %2, %2, %2
  %8 = getelementptr inbounds nuw i8, ptr %1, i64 16
  tail call void @_ZNK12colvarmodule7rvector16to_simple_stringB5cxx11Ev(ptr dead_on_unwind writable sret(%"class.std::__cxx11::basic_string") align 8 %0, ptr noundef nonnull align 8 dereferenceable(24) %8)
  br label %16

9:                                                ; preds = %2, %2
  %10 = getelementptr inbounds nuw i8, ptr %1, i64 40
  tail call void @_ZNK12colvarmodule10quaternion16to_simple_stringB5cxx11Ev(ptr dead_on_unwind writable sret(%"class.std::__cxx11::basic_string") align 8 %0, ptr noundef nonnull align 8 dereferenceable(32) %10)
  br label %16

11:                                               ; preds = %2
  %12 = getelementptr inbounds nuw i8, ptr %1, i64 72
  tail call void @_ZNK12colvarmodule8vector1dIdE16to_simple_stringB5cxx11Ev(ptr dead_on_unwind writable sret(%"class.std::__cxx11::basic_string") align 8 %0, ptr noundef nonnull align 8 dereferenceable(24) %12)
  br label %16

13:                                               ; preds = %2
  tail call void @_ZNK11colvarvalue8undef_opEv(ptr noundef nonnull align 8 dereferenceable(168) %1)
  %14 = getelementptr inbounds nuw i8, ptr %0, i64 16
  store ptr %14, ptr %0, align 8, !tbaa !53
  %15 = getelementptr inbounds nuw i8, ptr %0, i64 8
  store i64 0, ptr %15, align 8, !tbaa !48
  store i8 0, ptr %14, align 8, !tbaa !55
  br label %16

16:                                               ; preds = %13, %11, %9, %7, %4
  ret void
}